; Function Attrs: mustprogress uwtable
define hidden noundef float @_ZNK2cv6dynafu7ICPImpl6medianESt6vectorIfSaIfEE(ptr nocapture noundef nonnull readnone align 8 dereferenceable(40) %0, ptr nocapture noundef readonly %1) local_unnamed_addr #5 align 2 {
  %3 = getelementptr inbounds i8, ptr %1, i64 8
  %4 = load ptr, ptr %3, align 8
  %5 = load ptr, ptr %1, align 8
  %6 = ptrtoint ptr %4 to i64
  %7 = ptrtoint ptr %5 to i64
  %8 = sub i64 %6, %7
  %9 = ashr exact i64 %8, 2
  %10 = lshr i64 %9, 1
  %11 = icmp ult i64 %9, 2
  br i1 %11, label %44, label %12

12:                                               ; preds = %2
  %13 = getelementptr inbounds float, ptr %5, i64 %10
  %14 = icmp eq ptr %5, %4
  %15 = icmp eq ptr %13, %4
  %or.cond.i = select i1 %14, i1 true, i1 %15
  br i1 %or.cond.i, label %_ZSt11nth_elementIN9__gnu_cxx17__normal_iteratorIPfSt6vectorIfSaIfEEEEEvT_S7_S7_.exit, label %16

16:                                               ; preds = %12
  %17 = tail call range(i64 0, 65) i64 @llvm.ctlz.i64(i64 %9, i1 true)
  %18 = shl nuw nsw i64 %17, 1
  %19 = xor i64 %18, 126
  tail call void @_ZSt13__introselectIN9__gnu_cxx17__normal_iteratorIPfSt6vectorIfSaIfEEEElNS0_5__ops15_Iter_less_iterEEvT_S9_S9_T0_T1_(ptr %5, ptr %13, ptr %4, i64 noundef %19)
  %.pre = load ptr, ptr %1, align 8
  br label %_ZSt11nth_elementIN9__gnu_cxx17__normal_iteratorIPfSt6vectorIfSaIfEEEEEvT_S7_S7_.exit

_ZSt11nth_elementIN9__gnu_cxx17__normal_iteratorIPfSt6vectorIfSaIfEEEEEvT_S7_S7_.exit: ; preds = %12, %16
  %20 = phi ptr [ %5, %12 ], [ %.pre, %16 ]
  %21 = getelementptr inbounds float, ptr %20, i64 %10
  %22 = load float, ptr %21, align 4
  %23 = and i64 %8, 8
  %24 = icmp eq i64 %23, 0
  br i1 %24, label %25, label %44

25:                                               ; preds = %_ZSt11nth_elementIN9__gnu_cxx17__normal_iteratorIPfSt6vectorIfSaIfEEEEEvT_S7_S7_.exit
  %26 = getelementptr inbounds i8, ptr %21, i64 -4
  %27 = load ptr, ptr %3, align 8
  %28 = icmp eq ptr %20, %27
  %29 = icmp eq ptr %26, %27
  %or.cond.i14 = select i1 %28, i1 true, i1 %29
  br i1 %or.cond.i14, label %_ZSt11nth_elementIN9__gnu_cxx17__normal_iteratorIPfSt6vectorIfSaIfEEEEEvT_S7_S7_.exit15, label %30

30:                                               ; preds = %25
  %31 = ptrtoint ptr %27 to i64
  %32 = ptrtoint ptr %20 to i64
  %33 = sub i64 %31, %32
  %34 = ashr exact i64 %33, 2
  %35 = tail call range(i64 0, 65) i64 @llvm.ctlz.i64(i64 %34, i1 true)
  %36 = shl nuw nsw i64 %35, 1
  %37 = xor i64 %36, 126
  tail call void @_ZSt13__introselectIN9__gnu_cxx17__normal_iteratorIPfSt6vectorIfSaIfEEEElNS0_5__ops15_Iter_less_iterEEvT_S9_S9_T0_T1_(ptr nonnull %20, ptr nonnull %26, ptr %27, i64 noundef %37)
  %.pre18 = load ptr, ptr %1, align 8
  br label %_ZSt11nth_elementIN9__gnu_cxx17__normal_iteratorIPfSt6vectorIfSaIfEEEEEvT_S7_S7_.exit15

_ZSt11nth_elementIN9__gnu_cxx17__normal_iteratorIPfSt6vectorIfSaIfEEEEEvT_S7_S7_.exit15: ; preds = %25, %30
  %38 = phi ptr [ %20, %25 ], [ %.pre18, %30 ]
  %39 = getelementptr float, ptr %38, i64 %10
  %40 = getelementptr i8, ptr %39, i64 -4
  %41 = load float, ptr %40, align 4
  %42 = fadd float %22, %41
  %43 = fmul float %42, 5.000000e-01
  br label %44

44:                                               ; preds = %_ZSt11nth_elementIN9__gnu_cxx17__normal_iteratorIPfSt6vectorIfSaIfEEEEEvT_S7_S7_.exit, %2, %_ZSt11nth_elementIN9__gnu_cxx17__normal_iteratorIPfSt6vectorIfSaIfEEEEEvT_S7_S7_.exit15
  %.0 = phi float [ %43, %_ZSt11nth_elementIN9__gnu_cxx17__normal_iteratorIPfSt6vectorIfSaIfEEEEEvT_S7_S7_.exit15 ], [ 0.000000e+00, %2 ], [ %22, %_ZSt11nth_elementIN9__gnu_cxx17__normal_iteratorIPfSt6vectorIfSaIfEEEEEvT_S7_S7_.exit ]
  ret float %.0
}